target datalayout = "e-m:e-p270:32:32-p271:32:32-p272:64:64-i64:64-i128:128-f80:128-n8:16:32:64-S128"
target triple = "x86_64-pc-linux-gnu"

%struct.SDL_VideoDevice = type { ptr, ptr, ptr, ptr, ptr, ptr, ptr, ptr, ptr, ptr, ptr, ptr, ptr, ptr, ptr, ptr, ptr, ptr, ptr, ptr, ptr, ptr, ptr, ptr, ptr, ptr, ptr, ptr, ptr, ptr, ptr, ptr, ptr, ptr, ptr, ptr, ptr, ptr, ptr, ptr, ptr, ptr, ptr, ptr, ptr, ptr, ptr, ptr, ptr, ptr, ptr, ptr, ptr, ptr, ptr, ptr, ptr, ptr, ptr, ptr, ptr, ptr, ptr, ptr, ptr, ptr, ptr, ptr, ptr, ptr, ptr, ptr, ptr, ptr, ptr, ptr, ptr, ptr, ptr, ptr, ptr, ptr, ptr, ptr, ptr, ptr, ptr, ptr, ptr, ptr, ptr, ptr, ptr, ptr, ptr, ptr, ptr, i64, i8, i8, i8, ptr, i32, ptr, %struct.SDL_Rect, ptr, ptr, i32, ptr, ptr, ptr, ptr, i64, ptr, i8, i32, i32, %struct.anon, ptr, ptr, ptr, ptr, ptr, ptr, %struct.SDL_AtomicInt, %struct.SDL_AtomicInt, i8, %struct.anon.0, ptr, ptr, ptr, ptr, ptr }
%struct.SDL_Rect = type { i32, i32, i32, i32 }
%struct.anon = type { i32, i32, i32, i32, i32, i32, i32, i32, i32, i32, i32, i32, i32, i32, i32, i32, i32, i32, i32, i32, i32, i32, i32, i32, i32, i32, i32, i32, i32, [256 x i8], ptr }
%struct.SDL_AtomicInt = type { i32 }
%struct.anon.0 = type { ptr, ptr, i32, [256 x i8], ptr }

@.str.3 = private unnamed_addr constant [26 x i8] c"Parameter '%s' is invalid\00", align 1
@.str.4 = private unnamed_addr constant [10 x i8] c"mime_type\00", align 1
@.str.5 = private unnamed_addr constant [5 x i8] c"text\00", align 1

; Function Attrs: nounwind uwtable
define hidden ptr @SDL_GetInternalClipboardData(ptr noundef %0, ptr noundef %1, ptr noundef %2) #0 {
  %4 = alloca ptr, align 8
  %5 = alloca ptr, align 8
  %6 = alloca ptr, align 8
  %7 = alloca ptr, align 8
  %8 = alloca ptr, align 8
  store ptr %0, ptr %4, align 8
  store ptr %1, ptr %5, align 8
  store ptr %2, ptr %6, align 8
  call void @llvm.lifetime.start.p0(i64 8, ptr %7) #5
  store ptr null, ptr %7, align 8
  %9 = load ptr, ptr %4, align 8
  %10 = getelementptr inbounds nuw %struct.SDL_VideoDevice, ptr %9, i32 0, i32 108
  %11 = load ptr, ptr %10, align 8
  %12 = icmp ne ptr %11, null
  br i1 %12, label %13, label %43

13:                                               ; preds = %3
  call void @llvm.lifetime.start.p0(i64 8, ptr %8) #5
  %14 = load ptr, ptr %4, align 8
  %15 = getelementptr inbounds nuw %struct.SDL_VideoDevice, ptr %14, i32 0, i32 108
  %16 = load ptr, ptr %15, align 8
  %17 = load ptr, ptr %4, align 8
  %18 = getelementptr inbounds nuw %struct.SDL_VideoDevice, ptr %17, i32 0, i32 110
  %19 = load ptr, ptr %18, align 8
  %20 = load ptr, ptr %5, align 8
  %21 = load ptr, ptr %6, align 8
  %22 = call ptr %16(ptr noundef %19, ptr noundef %20, ptr noundef %21)
  store ptr %22, ptr %8, align 8
  %23 = load ptr, ptr %8, align 8
  %24 = icmp ne ptr %23, null
  br i1 %24, label %25, label %42

25:                                               ; preds = %13
  %26 = load ptr, ptr %6, align 8
  %27 = load i64, ptr %26, align 8
  %28 = add i64 %27, 4
  %29 = call noalias ptr @SDL_malloc_REAL(i64 noundef %28)
  store ptr %29, ptr %7, align 8
  %30 = load ptr, ptr %7, align 8
  %31 = icmp ne ptr %30, null
  br i1 %31, label %32, label %41

32:                                               ; preds = %25
  %33 = load ptr, ptr %7, align 8
  %34 = load ptr, ptr %8, align 8
  %35 = load ptr, ptr %6, align 8
  %36 = load i64, ptr %35, align 8
  call void @llvm.memcpy.p0.p0.i64(ptr align 1 %33, ptr align 1 %34, i64 %36, i1 false)
  %37 = load ptr, ptr %7, align 8
  %38 = load ptr, ptr %6, align 8
  %39 = load i64, ptr %38, align 8
  %40 = getelementptr inbounds nuw i8, ptr %37, i64 %39
  call void @llvm.memset.p0.i64(ptr align 1 %40, i8 0, i64 4, i1 false)
  br label %41

41:                                               ; preds = %32, %25
  br label %42

42:                                               ; preds = %41, %13
  call void @llvm.lifetime.end.p0(i64 8, ptr %8) #5
  br label %43

43:                                               ; preds = %42, %3
  %44 = load ptr, ptr %7, align 8
  call void @llvm.lifetime.end.p0(i64 8, ptr %7) #5
  ret ptr %44
}

; Function Attrs: nounwind uwtable
define hidden zeroext i1 @SDL_IsTextMimeType(ptr noundef %0) #0 {
  %2 = alloca ptr, align 8
  store ptr %0, ptr %2, align 8
  %3 = load ptr, ptr %2, align 8
  %4 = call i32 @SDL_strncmp_REAL(ptr noundef %3, ptr noundef @.str.5, i64 noundef 4)
  %5 = icmp eq i32 %4, 0
  ret i1 %5
}

; Function Attrs: nounwind uwtable
define hidden ptr @SDL_GetClipboardData_REAL(ptr noundef %0, ptr noundef %1) #0 {
  %3 = alloca ptr, align 8
  %4 = alloca ptr, align 8
  %5 = alloca ptr, align 8
  %6 = alloca ptr, align 8
  %7 = alloca i64, align 8
  %8 = alloca i32, align 4
  %9 = alloca ptr, align 8
  store ptr %0, ptr %4, align 8
  store ptr %1, ptr %5, align 8
  call void @llvm.lifetime.start.p0(i64 8, ptr %6) #5
  %10 = call ptr @SDL_GetVideoDevice()
  store ptr %10, ptr %6, align 8
  call void @llvm.lifetime.start.p0(i64 8, ptr %7) #5
  %11 = load ptr, ptr %6, align 8
  %12 = icmp ne ptr %11, null
  br i1 %12, label %15, label %13

13:                                               ; preds = %2
  %14 = call zeroext i1 @SDL_UninitializedVideo()
  store ptr null, ptr %3, align 8
  store i32 1, ptr %8, align 4
  br label %73

15:                                               ; preds = %2
  %16 = load ptr, ptr %4, align 8
  %17 = icmp ne ptr %16, null
  br i1 %17, label %20, label %18

18:                                               ; preds = %15
  %19 = call zeroext i1 (ptr, ...) @SDL_SetError_REAL(ptr noundef @.str.3, ptr noundef @.str.4)
  store ptr null, ptr %3, align 8
  store i32 1, ptr %8, align 4
  br label %73

20:                                               ; preds = %15
  %21 = load ptr, ptr %5, align 8
  %22 = icmp ne ptr %21, null
  br i1 %22, label %24, label %23

23:                                               ; preds = %20
  store ptr %7, ptr %5, align 8
  br label %24

24:                                               ; preds = %23, %20
  %25 = load ptr, ptr %5, align 8
  store i64 0, ptr %25, align 8
  %26 = load ptr, ptr %6, align 8
  %27 = getelementptr inbounds nuw %struct.SDL_VideoDevice, ptr %26, i32 0, i32 85
  %28 = load ptr, ptr %27, align 8
  %29 = icmp ne ptr %28, null
  br i1 %29, label %30, label %38

30:                                               ; preds = %24
  %31 = load ptr, ptr %6, align 8
  %32 = getelementptr inbounds nuw %struct.SDL_VideoDevice, ptr %31, i32 0, i32 85
  %33 = load ptr, ptr %32, align 8
  %34 = load ptr, ptr %6, align 8
  %35 = load ptr, ptr %4, align 8
  %36 = load ptr, ptr %5, align 8
  %37 = call ptr %33(ptr noundef %34, ptr noundef %35, ptr noundef %36)
  store ptr %37, ptr %3, align 8
  store i32 1, ptr %8, align 4
  br label %73

38:                                               ; preds = %24
  %39 = load ptr, ptr %6, align 8
  %40 = getelementptr inbounds nuw %struct.SDL_VideoDevice, ptr %39, i32 0, i32 88
  %41 = load ptr, ptr %40, align 8
  %42 = icmp ne ptr %41, null
  br i1 %42, label %43, label %68

43:                                               ; preds = %38
  %44 = load ptr, ptr %4, align 8
  %45 = call zeroext i1 @SDL_IsTextMimeType(ptr noundef %44)
  br i1 %45, label %46, label %68

46:                                               ; preds = %43
  call void @llvm.lifetime.start.p0(i64 8, ptr %9) #5
  %47 = load ptr, ptr %6, align 8
  %48 = getelementptr inbounds nuw %struct.SDL_VideoDevice, ptr %47, i32 0, i32 88
  %49 = load ptr, ptr %48, align 8
  %50 = load ptr, ptr %6, align 8
  %51 = call ptr %49(ptr noundef %50)
  store ptr %51, ptr %9, align 8
  %52 = load ptr, ptr %9, align 8
  %53 = icmp ne ptr %52, null
  br i1 %53, label %54, label %66

54:                                               ; preds = %46
  %55 = load ptr, ptr %9, align 8
  %56 = load i8, ptr %55, align 1
  %57 = sext i8 %56 to i32
  %58 = icmp eq i32 %57, 0
  br i1 %58, label %59, label %61

59:                                               ; preds = %54
  %60 = load ptr, ptr %9, align 8
  call void @SDL_free_REAL(ptr noundef %60)
  store ptr null, ptr %9, align 8
  br label %65

61:                                               ; preds = %54
  %62 = load ptr, ptr %9, align 8
  %63 = call i64 @SDL_strlen_REAL(ptr noundef %62)
  %64 = load ptr, ptr %5, align 8
  store i64 %63, ptr %64, align 8
  br label %65

65:                                               ; preds = %61, %59
  br label %66

66:                                               ; preds = %65, %46
  %67 = load ptr, ptr %9, align 8
  store ptr %67, ptr %3, align 8
  store i32 1, ptr %8, align 4
  call void @llvm.lifetime.end.p0(i64 8, ptr %9) #5
  br label %73

68:                                               ; preds = %43, %38
  %69 = load ptr, ptr %6, align 8
  %70 = load ptr, ptr %4, align 8
  %71 = load ptr, ptr %5, align 8
  %72 = call ptr @SDL_GetInternalClipboardData(ptr noundef %69, ptr noundef %70, ptr noundef %71)
  store ptr %72, ptr %3, align 8
  store i32 1, ptr %8, align 4
  br label %73

73:                                               ; preds = %68, %66, %30, %18, %13
  call void @llvm.lifetime.end.p0(i64 8, ptr %7) #5
  call void @llvm.lifetime.end.p0(i64 8, ptr %6) #5
  %74 = load ptr, ptr %3, align 8
  ret ptr %74
}