; Function Attrs: nounwind uwtable
define hidden ptr @SDL_GetClipboardData_REAL(ptr noundef %0, ptr noundef %1) local_unnamed_addr #0 {
  %3 = alloca i64, align 8
  %4 = tail call ptr @SDL_GetVideoDevice() #6
  call void @llvm.lifetime.start.p0(i64 8, ptr nonnull %3) #6
  %.not = icmp eq ptr %4, null
  br i1 %.not, label %5, label %7

5:                                                ; preds = %2
  %6 = tail call zeroext i1 @SDL_UninitializedVideo() #6
  br label %SDL_GetInternalClipboardData.exit

7:                                                ; preds = %2
  %.not28 = icmp eq ptr %0, null
  br i1 %.not28, label %8, label %10

8:                                                ; preds = %7
  %9 = tail call zeroext i1 (ptr, ...) @SDL_SetError_REAL(ptr noundef nonnull @.str.3, ptr noundef nonnull @.str.4) #6
  br label %SDL_GetInternalClipboardData.exit

10:                                               ; preds = %7
  %.not29 = icmp eq ptr %1, null
  %spec.store.select = select i1 %.not29, ptr %3, ptr %1
  store i64 0, ptr %spec.store.select, align 8
  %11 = getelementptr inbounds nuw i8, ptr %4, i64 680
  %12 = load ptr, ptr %11, align 8
  %.not30 = icmp eq ptr %12, null
  br i1 %.not30, label %15, label %13

13:                                               ; preds = %10
  %14 = call ptr %12(ptr noundef nonnull %4, ptr noundef nonnull %0, ptr noundef nonnull %spec.store.select) #6
  br label %SDL_GetInternalClipboardData.exit

15:                                               ; preds = %10
  %16 = getelementptr inbounds nuw i8, ptr %4, i64 704
  %17 = load ptr, ptr %16, align 8
  %.not31 = icmp eq ptr %17, null
  br i1 %.not31, label %30, label %18

18:                                               ; preds = %15
  %19 = tail call i32 @SDL_strncmp_REAL(ptr noundef nonnull %0, ptr noundef nonnull @.str.5, i64 noundef 4) #6
  %20 = icmp eq i32 %19, 0
  br i1 %20, label %21, label %30

21:                                               ; preds = %18
  %22 = load ptr, ptr %16, align 8
  %23 = tail call ptr %22(ptr noundef nonnull %4) #6
  %.not32 = icmp eq ptr %23, null
  br i1 %.not32, label %SDL_GetInternalClipboardData.exit, label %24

24:                                               ; preds = %21
  %25 = load i8, ptr %23, align 1
  %26 = icmp eq i8 %25, 0
  br i1 %26, label %27, label %28

27:                                               ; preds = %24
  tail call void @SDL_free_REAL(ptr noundef nonnull %23) #6
  br label %SDL_GetInternalClipboardData.exit

28:                                               ; preds = %24
  %29 = tail call i64 @SDL_strlen_REAL(ptr noundef nonnull %23) #6
  store i64 %29, ptr %spec.store.select, align 8
  br label %SDL_GetInternalClipboardData.exit

30:                                               ; preds = %18, %15
  %31 = getelementptr inbounds nuw i8, ptr %4, i64 856
  %32 = load ptr, ptr %31, align 8
  %.not.i = icmp eq ptr %32, null
  br i1 %.not.i, label %SDL_GetInternalClipboardData.exit, label %33

33:                                               ; preds = %30
  %34 = getelementptr inbounds nuw i8, ptr %4, i64 872
  %35 = load ptr, ptr %34, align 8
  %36 = call ptr %32(ptr noundef %35, ptr noundef nonnull %0, ptr noundef nonnull %spec.store.select) #6
  %.not18.i = icmp eq ptr %36, null
  br i1 %.not18.i, label %SDL_GetInternalClipboardData.exit, label %37

37:                                               ; preds = %33
  %38 = load i64, ptr %spec.store.select, align 8
  %39 = add i64 %38, 4
  %40 = call noalias ptr @SDL_malloc_REAL(i64 noundef %39) #6
  %.not19.i = icmp eq ptr %40, null
  br i1 %.not19.i, label %SDL_GetInternalClipboardData.exit, label %41

41:                                               ; preds = %37
  %42 = load i64, ptr %spec.store.select, align 8
  call void @llvm.memcpy.p0.p0.i64(ptr nonnull align 1 %40, ptr nonnull align 1 %36, i64 %42, i1 false)
  %43 = getelementptr inbounds nuw i8, ptr %40, i64 %42
  store i32 0, ptr %43, align 1
  br label %SDL_GetInternalClipboardData.exit

SDL_GetInternalClipboardData.exit:                ; preds = %41, %37, %33, %30, %21, %28, %27, %13, %8, %5
  %.023 = phi ptr [ %14, %13 ], [ null, %8 ], [ null, %5 ], [ null, %27 ], [ %23, %28 ], [ null, %21 ], [ null, %30 ], [ %40, %41 ], [ null, %37 ], [ null, %33 ]
  call void @llvm.lifetime.end.p0(i64 8, ptr nonnull %3) #6
  ret ptr %.023
}